; Function Attrs: mustprogress nofree norecurse nosync nounwind willreturn memory(argmem: read) uwtable
define noundef zeroext i1 @_ZNK3net19QuicPacketGenerator16HasPendingFramesEv(ptr noundef nonnull readonly align 8 captures(none) dereferenceable(472) %0) local_unnamed_addr #8 align 2 {
  %2 = getelementptr inbounds nuw i8, ptr %0, i64 345
  %3 = load i8, ptr %2, align 1, !tbaa !70, !range !67, !noundef !68
  %4 = trunc nuw i8 %3 to i1
  br i1 %4, label %15, label %5

5:                                                ; preds = %1
  %6 = getelementptr inbounds nuw i8, ptr %0, i64 346
  %7 = load i8, ptr %6, align 2, !tbaa !71, !range !67, !noundef !68
  %8 = trunc nuw i8 %7 to i1
  br i1 %8, label %15, label %9

9:                                                ; preds = %5
  %10 = getelementptr inbounds nuw i8, ptr %0, i64 320
  %11 = load ptr, ptr %10, align 8, !tbaa !72
  %12 = getelementptr inbounds nuw i8, ptr %0, i64 328
  %13 = load ptr, ptr %12, align 8, !tbaa !72
  %14 = icmp ne ptr %11, %13
  br label %15

15:                                               ; preds = %9, %5, %1
  %16 = phi i1 [ true, %5 ], [ true, %1 ], [ %14, %9 ]
  ret i1 %16
}